; Function Attrs: null_pointer_is_valid sspstrong uwtable
define internal i32 @dissect_edonkey_file_info(ptr noundef %0, ptr noundef %1, i32 noundef %2, ptr noundef %3) #0 {
  %5 = load i32, ptr @hf_edonkey_fileinfo, align 4
  %6 = tail call ptr @proto_tree_add_item(ptr noundef %3, i32 noundef %5, ptr noundef %0, i32 noundef %2, i32 noundef 0, i32 noundef 0)
  %7 = load i32, ptr @ett_edonkey_fileinfo, align 4
  %8 = tail call ptr @proto_item_add_subtree(ptr noundef %6, i32 noundef %7)
  %9 = load i32, ptr @hf_edonkey_file_hash, align 4
  %10 = tail call ptr @proto_tree_add_item(ptr noundef %8, i32 noundef %9, ptr noundef %0, i32 noundef %2, i32 noundef 16, i32 noundef 0)
  %11 = add i32 %2, 16
  %12 = load i32, ptr @hf_edonkey_client_id, align 4
  %13 = tail call ptr @proto_tree_add_item(ptr noundef %8, i32 noundef %12, ptr noundef %0, i32 noundef %11, i32 noundef 4, i32 noundef 0)
  %14 = tail call i32 @tvb_get_letohl(ptr noundef %0, i32 noundef %11)
  %15 = add i32 %2, 20
  %16 = tail call zeroext i16 @tvb_get_letohs(ptr noundef %0, i32 noundef %15)
  %17 = icmp eq i32 %14, -50529028
  %18 = icmp eq i16 %16, -772
  %or.cond.i = select i1 %17, i1 %18, i1 false
  br i1 %or.cond.i, label %dissect_edonkey_client_id.exit.sink.split, label %19

19:                                               ; preds = %4
  %20 = icmp eq i32 %14, -67372037
  %21 = icmp eq i16 %16, -1029
  %or.cond5.i = select i1 %20, i1 %21, i1 false
  br i1 %or.cond5.i, label %dissect_edonkey_client_id.exit.sink.split, label %dissect_edonkey_client_id.exit

dissect_edonkey_client_id.exit.sink.split:        ; preds = %19, %4
  %.str.463.sink = phi ptr [ @.str.463, %4 ], [ @.str.464, %19 ]
  tail call void (ptr, ptr, ...) @proto_item_append_text(ptr noundef %13, ptr noundef nonnull %.str.463.sink)
  br label %dissect_edonkey_client_id.exit

dissect_edonkey_client_id.exit:                   ; preds = %dissect_edonkey_client_id.exit.sink.split, %19
  %22 = load i32, ptr @hf_edonkey_port, align 4
  %23 = tail call ptr @proto_tree_add_item(ptr noundef %8, i32 noundef %22, ptr noundef %0, i32 noundef %15, i32 noundef 2, i32 noundef -2147483648)
  %24 = add i32 %2, 22
  %25 = tail call fastcc i32 @dissect_edonkey_list(ptr noundef %0, ptr noundef %1, i32 noundef %24, ptr noundef %8, i32 noundef 4, ptr noundef nonnull @.str.417, ptr noundef nonnull @dissect_edonkey_metatag)
  %26 = sub i32 %25, %2
  tail call void @proto_item_set_len(ptr noundef %6, i32 noundef %26)
  ret i32 %25
}